target datalayout = "e-m:e-p270:32:32-p271:32:32-p272:64:64-i64:64-i128:128-f80:128-n8:16:32:64-S128"
target triple = "x86_64-pc-linux-gnu"

%struct.dt_iop_module_t = type { i32, ptr, ptr, ptr, ptr, ptr, ptr, ptr, ptr, ptr, ptr, ptr, ptr, ptr, ptr, ptr, ptr, ptr, ptr, ptr, ptr, ptr, ptr, ptr, ptr, ptr, ptr, ptr, ptr, ptr, ptr, ptr, ptr, ptr, ptr, ptr, ptr, ptr, ptr, ptr, ptr, ptr, ptr, ptr, ptr, ptr, ptr, ptr, ptr, ptr, ptr, ptr, ptr, ptr, ptr, ptr, ptr, [20 x i8], i32, i32, i32, i32, i32, i32, i32, [8 x i8], [4 x float], [4 x float], [4 x float], [4 x float], [4 x float], [4 x float], ptr, %struct.dt_dev_histogram_stats_t, [4 x i32], i32, i32, ptr, i32, i32, ptr, ptr, i32, ptr, %struct.dt_pthread_mutex_t, ptr, ptr, ptr, ptr, %struct.anon, ptr, ptr, ptr, ptr, ptr, ptr, ptr, i32, ptr, ptr, ptr, ptr, ptr, ptr, ptr, i32, ptr, i32, [128 x i8], i32, ptr, ptr, i32, [12 x i8] }
%struct.dt_dev_histogram_stats_t = type { i32, i64, i32, i32 }
%struct.dt_pthread_mutex_t = type { %union.pthread_mutex_t }
%union.pthread_mutex_t = type { %struct.__pthread_mutex_s }
%struct.__pthread_mutex_s = type { i32, i32, i32, i32, i32, i16, i16, %struct.__pthread_internal_list }
%struct.__pthread_internal_list = type { ptr, ptr }
%struct.anon = type { %struct.anon.0, %struct.anon.1 }
%struct.anon.0 = type { ptr, ptr }
%struct.anon.1 = type { ptr, i32 }

@.str = private unnamed_addr constant [32 x i8] c"plugins/darkroom/%s/modulegroup\00", align 1
@.str.1 = private unnamed_addr constant [32 x i8] c"plugins/darkroom/group_order/%d\00", align 1

; Function Attrs: nounwind uwtable
define i32 @dt_iop_get_group(ptr noundef %0) #0 {
  %2 = alloca ptr, align 8
  %3 = alloca ptr, align 8
  %4 = alloca i32, align 4
  %5 = alloca i32, align 4
  %6 = alloca ptr, align 8
  store ptr %0, ptr %2, align 8, !tbaa !6
  call void @llvm.lifetime.start.p0(i64 8, ptr %3) #3
  %7 = load ptr, ptr %2, align 8, !tbaa !6
  %8 = getelementptr inbounds nuw %struct.dt_iop_module_t, ptr %7, i32 0, i32 57
  %9 = getelementptr inbounds [20 x i8], ptr %8, i64 0, i64 0
  %10 = call noalias ptr (ptr, ...) @g_strdup_printf(ptr noundef @.str, ptr noundef %9)
  store ptr %10, ptr %3, align 8, !tbaa !11
  call void @llvm.lifetime.start.p0(i64 4, ptr %4) #3
  %11 = load ptr, ptr %3, align 8, !tbaa !11
  %12 = call i32 @dt_conf_get_int(ptr noundef %11)
  store i32 %12, ptr %4, align 4, !tbaa !13
  %13 = load i32, ptr %4, align 4, !tbaa !13
  %14 = icmp ne i32 %13, 0
  br i1 %14, label %24, label %15

15:                                               ; preds = %1
  call void @llvm.lifetime.start.p0(i64 4, ptr %5) #3
  %16 = load ptr, ptr %2, align 8, !tbaa !6
  %17 = getelementptr inbounds nuw %struct.dt_iop_module_t, ptr %16, i32 0, i32 7
  %18 = load ptr, ptr %17, align 8, !tbaa !15
  %19 = call i32 %18()
  store i32 %19, ptr %5, align 4, !tbaa !13
  %20 = load ptr, ptr %3, align 8, !tbaa !11
  %21 = load i32, ptr %5, align 4, !tbaa !13
  %22 = call i32 @_group_number(i32 noundef %21)
  call void @dt_conf_set_int(ptr noundef %20, i32 noundef %22)
  %23 = load i32, ptr %5, align 4, !tbaa !13
  store i32 %23, ptr %4, align 4, !tbaa !13
  call void @llvm.lifetime.end.p0(i64 4, ptr %5) #3
  br label %42

24:                                               ; preds = %1
  call void @llvm.lifetime.start.p0(i64 8, ptr %6) #3
  %25 = load i32, ptr %4, align 4, !tbaa !13
  %26 = call noalias ptr (ptr, ...) @g_strdup_printf(ptr noundef @.str.1, i32 noundef %25)
  store ptr %26, ptr %6, align 8, !tbaa !11
  %27 = load ptr, ptr %6, align 8, !tbaa !11
  %28 = call i32 @dt_conf_get_int(ptr noundef %27)
  store i32 %28, ptr %4, align 4, !tbaa !13
  %29 = load i32, ptr %4, align 4, !tbaa !13
  %30 = sub nsw i32 %29, 1
  %31 = shl i32 1, %30
  store i32 %31, ptr %4, align 4, !tbaa !13
  %32 = load i32, ptr %4, align 4, !tbaa !13
  %33 = icmp sgt i32 %32, 16
  br i1 %33, label %34, label %35

34:                                               ; preds = %24
  store i32 16, ptr %4, align 4, !tbaa !13
  br label %40

35:                                               ; preds = %24
  %36 = load i32, ptr %4, align 4, !tbaa !13
  %37 = icmp slt i32 %36, 1
  br i1 %37, label %38, label %39

38:                                               ; preds = %35
  store i32 1, ptr %4, align 4, !tbaa !13
  br label %39

39:                                               ; preds = %38, %35
  br label %40

40:                                               ; preds = %39, %34
  %41 = load ptr, ptr %6, align 8, !tbaa !11
  call void @g_free(ptr noundef %41)
  call void @llvm.lifetime.end.p0(i64 8, ptr %6) #3
  br label %42

42:                                               ; preds = %40, %15
  %43 = load ptr, ptr %3, align 8, !tbaa !11
  call void @g_free(ptr noundef %43)
  %44 = load i32, ptr %4, align 4, !tbaa !13
  call void @llvm.lifetime.end.p0(i64 4, ptr %4) #3
  call void @llvm.lifetime.end.p0(i64 8, ptr %3) #3
  ret i32 %44
}

; Function Attrs: nocallback nofree nosync nounwind willreturn memory(argmem: readwrite)
declare void @llvm.lifetime.start.p0(i64 immarg, ptr captures(none)) #1

declare noalias ptr @g_strdup_printf(ptr noundef, ...) #2

declare i32 @dt_conf_get_int(ptr noundef) #2

declare void @dt_conf_set_int(ptr noundef, i32 noundef) #2

; Function Attrs: nounwind uwtable
define internal i32 @_group_number(i32 noundef %0) #0 {
  %2 = alloca i32, align 4
  %3 = alloca i32, align 4
  store i32 %0, ptr %3, align 4, !tbaa !13
  %4 = load i32, ptr %3, align 4, !tbaa !13
  %5 = icmp eq i32 %4, 16
  br i1 %5, label %6, label %7

6:                                                ; preds = %1
  store i32 5, ptr %2, align 4
  br label %24

7:                                                ; preds = %1
  %8 = load i32, ptr %3, align 4, !tbaa !13
  %9 = icmp eq i32 %8, 8
  br i1 %9, label %10, label %11

10:                                               ; preds = %7
  store i32 4, ptr %2, align 4
  br label %24

11:                                               ; preds = %7
  %12 = load i32, ptr %3, align 4, !tbaa !13
  %13 = icmp eq i32 %12, 4
  br i1 %13, label %14, label %15

14:                                               ; preds = %11
  store i32 3, ptr %2, align 4
  br label %24

15:                                               ; preds = %11
  %16 = load i32, ptr %3, align 4, !tbaa !13
  %17 = icmp eq i32 %16, 2
  br i1 %17, label %18, label %19

18:                                               ; preds = %15
  store i32 2, ptr %2, align 4
  br label %24

19:                                               ; preds = %15
  %20 = load i32, ptr %3, align 4, !tbaa !13
  %21 = icmp eq i32 %20, 1
  br i1 %21, label %22, label %23

22:                                               ; preds = %19
  store i32 1, ptr %2, align 4
  br label %24

23:                                               ; preds = %19
  store i32 0, ptr %2, align 4
  br label %24

24:                                               ; preds = %23, %22, %18, %14, %10, %6
  %25 = load i32, ptr %2, align 4
  ret i32 %25
}

; Function Attrs: nocallback nofree nosync nounwind willreturn memory(argmem: readwrite)
declare void @llvm.lifetime.end.p0(i64 immarg, ptr captures(none)) #1

declare void @g_free(ptr noundef) #2


!llvm.module.flags = !{!0, !1, !2, !3, !4, !5}

!0 = !{i32 7, !"Dwarf Version", i32 5}
!1 = !{i32 2, !"Debug Info Version", i32 3}
!2 = !{i32 1, !"wchar_size", i32 4}
!3 = !{i32 8, !"PIC Level", i32 2}
!4 = !{i32 7, !"uwtable", i32 2}
!5 = !{i32 7, !"debug-info-assignment-tracking", i1 true}
!6 = !{!7, !7, i64 0}
!7 = !{!"p1 _ZTS15dt_iop_module_t", !8, i64 0}
!8 = !{!"any pointer", !9, i64 0}
!9 = !{!"omnipotent char", !10, i64 0}
!10 = !{!"Simple C/C++ TBAA"}
!11 = !{!12, !12, i64 0}
!12 = !{!"p1 omnipotent char", !8, i64 0}
!13 = !{!14, !14, i64 0}
!14 = !{!"int", !9, i64 0}
!15 = !{!16, !8, i64 56}
!16 = !{!"dt_iop_module_t", !14, i64 0, !8, i64 8, !8, i64 16, !8, i64 24, !8, i64 32, !8, i64 40, !8, i64 48, !8, i64 56, !8, i64 64, !8, i64 72, !8, i64 80, !8, i64 88, !8, i64 96, !8, i64 104, !8, i64 112, !8, i64 120, !8, i64 128, !8, i64 136, !8, i64 144, !8, i64 152, !8, i64 160, !8, i64 168, !8, i64 176, !8, i64 184, !8, i64 192, !8, i64 200, !8, i64 208, !8, i64 216, !8, i64 224, !8, i64 232, !8, i64 240, !8, i64 248, !8, i64 256, !8, i64 264, !8, i64 272, !8, i64 280, !8, i64 288, !8, i64 296, !8, i64 304, !8, i64 312, !8, i64 320, !8, i64 328, !8, i64 336, !8, i64 344, !8, i64 352, !8, i64 360, !8, i64 368, !8, i64 376, !8, i64 384, !8, i64 392, !8, i64 400, !8, i64 408, !8, i64 416, !8, i64 424, !8, i64 432, !8, i64 440, !17, i64 448, !9, i64 456, !14, i64 476, !14, i64 480, !14, i64 484, !14, i64 488, !14, i64 492, !14, i64 496, !14, i64 500, !9, i64 512, !9, i64 528, !9, i64 544, !9, i64 560, !9, i64 576, !9, i64 592, !18, i64 608, !19, i64 616, !9, i64 640, !14, i64 656, !14, i64 660, !21, i64 664, !14, i64 672, !14, i64 676, !8, i64 680, !8, i64 688, !14, i64 696, !8, i64 704, !22, i64 712, !8, i64 752, !23, i64 760, !23, i64 768, !8, i64 776, !24, i64 784, !28, i64 816, !28, i64 824, !28, i64 832, !28, i64 840, !28, i64 848, !28, i64 856, !28, i64 864, !14, i64 872, !28, i64 880, !28, i64 888, !28, i64 896, !29, i64 904, !29, i64 912, !28, i64 920, !28, i64 928, !14, i64 936, !30, i64 944, !14, i64 952, !9, i64 956, !14, i64 1084, !28, i64 1088, !8, i64 1096, !14, i64 1104}
!17 = !{!"p1 _ZTS8_GModule", !8, i64 0}
!18 = !{!"p1 int", !8, i64 0}
!19 = !{!"dt_dev_histogram_stats_t", !14, i64 0, !20, i64 8, !14, i64 16, !14, i64 20}
!20 = !{!"long", !9, i64 0}
!21 = !{!"p1 _ZTS12dt_develop_t", !8, i64 0}
!22 = !{!"dt_pthread_mutex_t", !9, i64 0}
!23 = !{!"p1 _ZTS25dt_develop_blend_params_t", !8, i64 0}
!24 = !{!"", !25, i64 0, !27, i64 16}
!25 = !{!"", !26, i64 0, !26, i64 8}
!26 = !{!"p1 _ZTS11_GHashTable", !8, i64 0}
!27 = !{!"", !7, i64 0, !14, i64 8}
!28 = !{!"p1 _ZTS10_GtkWidget", !8, i64 0}
!29 = !{!"p1 _ZTS7_GSList", !8, i64 0}
!30 = !{!"p1 _ZTS18dt_iop_module_so_t", !8, i64 0}
