; ModuleID = 'bench/darktable/original/iop_group.ll'
source_filename = "bench/darktable/original/iop_group.ll"
target datalayout = "e-m:e-p270:32:32-p271:32:32-p272:64:64-i64:64-i128:128-f80:128-n8:16:32:64-S128"
target triple = "x86_64-pc-linux-gnu"

@.str = private unnamed_addr constant [32 x i8] c"plugins/darkroom/%s/modulegroup\00", align 1
@.str.1 = private unnamed_addr constant [32 x i8] c"plugins/darkroom/group_order/%d\00", align 1

; Function Attrs: nounwind uwtable
define i32 @dt_iop_get_group(ptr noundef %0) local_unnamed_addr #0 {
  %2 = getelementptr inbounds nuw i8, ptr %0, i64 456
  %3 = tail call noalias ptr (ptr, ...) @g_strdup_printf(ptr noundef nonnull @.str, ptr noundef nonnull %2) #3
  %4 = tail call i32 @dt_conf_get_int(ptr noundef %3) #3
  %.not = icmp eq i32 %4, 0
  br i1 %.not, label %5, label %13

5:                                                ; preds = %1
  %6 = getelementptr inbounds nuw i8, ptr %0, i64 56
  %7 = load ptr, ptr %6, align 8, !tbaa !6
  %8 = tail call i32 %7() #3
  switch i32 %8, label %12 [
    i32 16, label %_group_number.exit
    i32 8, label %9
    i32 4, label %10
    i32 2, label %11
    i32 1, label %11
  ]

9:                                                ; preds = %5
  br label %_group_number.exit

10:                                               ; preds = %5
  br label %_group_number.exit

11:                                               ; preds = %5, %5
  br label %_group_number.exit

12:                                               ; preds = %5
  br label %_group_number.exit

_group_number.exit:                               ; preds = %5, %9, %10, %11, %12
  %.0.i = phi i32 [ 4, %9 ], [ 3, %10 ], [ %8, %11 ], [ 0, %12 ], [ 5, %5 ]
  tail call void @dt_conf_set_int(ptr noundef %3, i32 noundef %.0.i) #3
  br label %19

13:                                               ; preds = %1
  %14 = tail call noalias ptr (ptr, ...) @g_strdup_printf(ptr noundef nonnull @.str.1, i32 noundef %4) #3
  %15 = tail call i32 @dt_conf_get_int(ptr noundef %14) #3
  %16 = add nsw i32 %15, -1
  %17 = shl nuw i32 1, %16
  %spec.store.select = tail call i32 @llvm.smax.i32(i32 %17, i32 1)
  %18 = tail call i32 @llvm.umin.i32(i32 %spec.store.select, i32 16)
  tail call void @g_free(ptr noundef %14) #3
  br label %19

19:                                               ; preds = %13, %_group_number.exit
  %.0 = phi i32 [ %18, %13 ], [ %8, %_group_number.exit ]
  tail call void @g_free(ptr noundef %3) #3
  ret i32 %.0
}

declare noalias ptr @g_strdup_printf(ptr noundef, ...) local_unnamed_addr #1

declare i32 @dt_conf_get_int(ptr noundef) local_unnamed_addr #1

declare void @dt_conf_set_int(ptr noundef, i32 noundef) local_unnamed_addr #1

declare void @g_free(ptr noundef) local_unnamed_addr #1

; Function Attrs: nocallback nofree nosync nounwind speculatable willreturn memory(none)
declare i32 @llvm.smax.i32(i32, i32) #2

; Function Attrs: nocallback nofree nosync nounwind speculatable willreturn memory(none)
declare i32 @llvm.umin.i32(i32, i32) #2


!llvm.module.flags = !{!0, !1, !2, !3, !4, !5}

!0 = !{i32 7, !"Dwarf Version", i32 5}
!1 = !{i32 2, !"Debug Info Version", i32 3}
!2 = !{i32 1, !"wchar_size", i32 4}
!3 = !{i32 8, !"PIC Level", i32 2}
!4 = !{i32 7, !"uwtable", i32 2}
!5 = !{i32 7, !"debug-info-assignment-tracking", i1 true}
!6 = !{!7, !11, i64 56}
!7 = !{!"dt_iop_module_t", !8, i64 0, !11, i64 8, !11, i64 16, !11, i64 24, !11, i64 32, !11, i64 40, !11, i64 48, !11, i64 56, !11, i64 64, !11, i64 72, !11, i64 80, !11, i64 88, !11, i64 96, !11, i64 104, !11, i64 112, !11, i64 120, !11, i64 128, !11, i64 136, !11, i64 144, !11, i64 152, !11, i64 160, !11, i64 168, !11, i64 176, !11, i64 184, !11, i64 192, !11, i64 200, !11, i64 208, !11, i64 216, !11, i64 224, !11, i64 232, !11, i64 240, !11, i64 248, !11, i64 256, !11, i64 264, !11, i64 272, !11, i64 280, !11, i64 288, !11, i64 296, !11, i64 304, !11, i64 312, !11, i64 320, !11, i64 328, !11, i64 336, !11, i64 344, !11, i64 352, !11, i64 360, !11, i64 368, !11, i64 376, !11, i64 384, !11, i64 392, !11, i64 400, !11, i64 408, !11, i64 416, !11, i64 424, !11, i64 432, !11, i64 440, !12, i64 448, !9, i64 456, !8, i64 476, !8, i64 480, !8, i64 484, !8, i64 488, !8, i64 492, !8, i64 496, !8, i64 500, !9, i64 512, !9, i64 528, !9, i64 544, !9, i64 560, !9, i64 576, !9, i64 592, !13, i64 608, !14, i64 616, !9, i64 640, !8, i64 656, !8, i64 660, !16, i64 664, !8, i64 672, !8, i64 676, !11, i64 680, !11, i64 688, !8, i64 696, !11, i64 704, !17, i64 712, !11, i64 752, !18, i64 760, !18, i64 768, !11, i64 776, !19, i64 784, !24, i64 816, !24, i64 824, !24, i64 832, !24, i64 840, !24, i64 848, !24, i64 856, !24, i64 864, !8, i64 872, !24, i64 880, !24, i64 888, !24, i64 896, !25, i64 904, !25, i64 912, !24, i64 920, !24, i64 928, !8, i64 936, !26, i64 944, !8, i64 952, !9, i64 956, !8, i64 1084, !24, i64 1088, !11, i64 1096, !8, i64 1104}
!8 = !{!"int", !9, i64 0}
!9 = !{!"omnipotent char", !10, i64 0}
!10 = !{!"Simple C/C++ TBAA"}
!11 = !{!"any pointer", !9, i64 0}
!12 = !{!"p1 _ZTS8_GModule", !11, i64 0}
!13 = !{!"p1 int", !11, i64 0}
!14 = !{!"dt_dev_histogram_stats_t", !8, i64 0, !15, i64 8, !8, i64 16, !8, i64 20}
!15 = !{!"long", !9, i64 0}
!16 = !{!"p1 _ZTS12dt_develop_t", !11, i64 0}
!17 = !{!"dt_pthread_mutex_t", !9, i64 0}
!18 = !{!"p1 _ZTS25dt_develop_blend_params_t", !11, i64 0}
!19 = !{!"", !20, i64 0, !22, i64 16}
!20 = !{!"", !21, i64 0, !21, i64 8}
!21 = !{!"p1 _ZTS11_GHashTable", !11, i64 0}
!22 = !{!"", !23, i64 0, !8, i64 8}
!23 = !{!"p1 _ZTS15dt_iop_module_t", !11, i64 0}
!24 = !{!"p1 _ZTS10_GtkWidget", !11, i64 0}
!25 = !{!"p1 _ZTS7_GSList", !11, i64 0}
!26 = !{!"p1 _ZTS18dt_iop_module_so_t", !11, i64 0}
